target datalayout = "e-m:e-p270:32:32-p271:32:32-p272:64:64-i64:64-i128:128-f80:128-n8:16:32:64-S128"
target triple = "x86_64-pc-linux-gnu"

%struct.AMRFixed = type { i32, [10 x i32], [10 x float], i32, i32, float }

; Function Attrs: nounwind uwtable
define void @ff_clear_fixed_vector(ptr noundef %0, ptr noundef %1, i32 noundef %2) #0 {
  %4 = alloca ptr, align 8
  %5 = alloca ptr, align 8
  %6 = alloca i32, align 4
  %7 = alloca i32, align 4
  %8 = alloca i32, align 4
  %9 = alloca i32, align 4
  store ptr %0, ptr %4, align 8, !tbaa !27
  store ptr %1, ptr %5, align 8, !tbaa !18
  store i32 %2, ptr %6, align 4, !tbaa !11
  call void @llvm.lifetime.start.p0(i64 4, ptr %7) #6
  store i32 0, ptr %7, align 4, !tbaa !11
  br label %10

10:                                               ; preds = %58, %3
  %11 = load i32, ptr %7, align 4, !tbaa !11
  %12 = load ptr, ptr %5, align 8, !tbaa !18
  %13 = getelementptr inbounds nuw %struct.AMRFixed, ptr %12, i32 0, i32 0
  %14 = load i32, ptr %13, align 4, !tbaa !23
  %15 = icmp slt i32 %11, %14
  br i1 %15, label %16, label %61

16:                                               ; preds = %10
  call void @llvm.lifetime.start.p0(i64 4, ptr %8) #6
  %17 = load ptr, ptr %5, align 8, !tbaa !18
  %18 = getelementptr inbounds nuw %struct.AMRFixed, ptr %17, i32 0, i32 1
  %19 = load i32, ptr %7, align 4, !tbaa !11
  %20 = sext i32 %19 to i64
  %21 = getelementptr inbounds [10 x i32], ptr %18, i64 0, i64 %20
  %22 = load i32, ptr %21, align 4, !tbaa !11
  store i32 %22, ptr %8, align 4, !tbaa !11
  call void @llvm.lifetime.start.p0(i64 4, ptr %9) #6
  %23 = load ptr, ptr %5, align 8, !tbaa !18
  %24 = getelementptr inbounds nuw %struct.AMRFixed, ptr %23, i32 0, i32 3
  %25 = load i32, ptr %24, align 4, !tbaa !20
  %26 = load i32, ptr %7, align 4, !tbaa !11
  %27 = ashr i32 %25, %26
  %28 = and i32 %27, 1
  %29 = icmp ne i32 %28, 0
  %30 = xor i1 %29, true
  %31 = zext i1 %30 to i32
  store i32 %31, ptr %9, align 4, !tbaa !11
  %32 = load ptr, ptr %5, align 8, !tbaa !18
  %33 = getelementptr inbounds nuw %struct.AMRFixed, ptr %32, i32 0, i32 4
  %34 = load i32, ptr %33, align 4, !tbaa !32
  %35 = icmp sgt i32 %34, 0
  br i1 %35, label %36, label %57

36:                                               ; preds = %16
  br label %37

37:                                               ; preds = %54, %36
  %38 = load ptr, ptr %4, align 8, !tbaa !27
  %39 = load i32, ptr %8, align 4, !tbaa !11
  %40 = sext i32 %39 to i64
  %41 = getelementptr inbounds float, ptr %38, i64 %40
  store float 0.000000e+00, ptr %41, align 4, !tbaa !24
  %42 = load ptr, ptr %5, align 8, !tbaa !18
  %43 = getelementptr inbounds nuw %struct.AMRFixed, ptr %42, i32 0, i32 4
  %44 = load i32, ptr %43, align 4, !tbaa !32
  %45 = load i32, ptr %8, align 4, !tbaa !11
  %46 = add nsw i32 %45, %44
  store i32 %46, ptr %8, align 4, !tbaa !11
  br label %47

47:                                               ; preds = %37
  %48 = load i32, ptr %8, align 4, !tbaa !11
  %49 = load i32, ptr %6, align 4, !tbaa !11
  %50 = icmp slt i32 %48, %49
  br i1 %50, label %51, label %54

51:                                               ; preds = %47
  %52 = load i32, ptr %9, align 4, !tbaa !11
  %53 = icmp ne i32 %52, 0
  br label %54

54:                                               ; preds = %51, %47
  %55 = phi i1 [ false, %47 ], [ %53, %51 ]
  br i1 %55, label %37, label %56, !llvm.loop !36

56:                                               ; preds = %54
  br label %57

57:                                               ; preds = %56, %16
  call void @llvm.lifetime.end.p0(i64 4, ptr %9) #6
  call void @llvm.lifetime.end.p0(i64 4, ptr %8) #6
  br label %58

58:                                               ; preds = %57
  %59 = load i32, ptr %7, align 4, !tbaa !11
  %60 = add nsw i32 %59, 1
  store i32 %60, ptr %7, align 4, !tbaa !11
  br label %10, !llvm.loop !37

61:                                               ; preds = %10
  call void @llvm.lifetime.end.p0(i64 4, ptr %7) #6
  ret void
}