; Function Attrs: nofree norecurse nosync nounwind memory(argmem: readwrite) uwtable
define void @ff_clear_fixed_vector(ptr noundef writeonly captures(none) %0, ptr noundef readonly captures(none) %1, i32 noundef %2) local_unnamed_addr #0 {
  %4 = load i32, ptr %1, align 4, !tbaa !15
  %5 = icmp sgt i32 %4, 0
  br i1 %5, label %.lr.ph, label %._crit_edge

.lr.ph:                                           ; preds = %3
  %6 = getelementptr inbounds nuw i8, ptr %1, i64 4
  %7 = getelementptr inbounds nuw i8, ptr %1, i64 84
  %8 = load i32, ptr %7, align 4, !tbaa !11
  %9 = getelementptr inbounds nuw i8, ptr %1, i64 88
  %10 = load i32, ptr %9, align 4, !tbaa !23
  %11 = icmp sgt i32 %10, 0
  br i1 %11, label %.preheader.us.preheader, label %._crit_edge

.preheader.us.preheader:                          ; preds = %.lr.ph
  %12 = zext nneg i32 %10 to i64
  %13 = sext i32 %2 to i64
  %wide.trip.count = zext nneg i32 %4 to i64
  br label %.preheader.us

.preheader.us:                                    ; preds = %.preheader.us.preheader, %.loopexit.us
  %indvars.iv19 = phi i64 [ 0, %.preheader.us.preheader ], [ %indvars.iv.next20, %.loopexit.us ]
  %14 = getelementptr inbounds nuw [10 x i32], ptr %6, i64 0, i64 %indvars.iv19
  %15 = load i32, ptr %14, align 4, !tbaa !16
  %16 = trunc nuw nsw i64 %indvars.iv19 to i32
  %17 = shl nuw i32 1, %16
  %18 = and i32 %8, %17
  %.fr = freeze i32 %18
  %.not.us = icmp eq i32 %.fr, 0
  %19 = sext i32 %15 to i64
  br i1 %.not.us, label %.preheader.split.us16, label %.preheader.split.us.us

.preheader.split.us16:                            ; preds = %.preheader.us, %.preheader.split.us16
  %indvars.iv = phi i64 [ %indvars.iv.next, %.preheader.split.us16 ], [ %19, %.preheader.us ]
  %20 = getelementptr inbounds float, ptr %0, i64 %indvars.iv
  store float 0.000000e+00, ptr %20, align 4, !tbaa !17
  %indvars.iv.next = add nsw i64 %indvars.iv, %12
  %21 = icmp slt i64 %indvars.iv.next, %13
  br i1 %21, label %.preheader.split.us16, label %.loopexit.us, !llvm.loop !27

.loopexit.us:                                     ; preds = %.preheader.split.us16, %.preheader.split.us.us
  %indvars.iv.next20 = add nuw nsw i64 %indvars.iv19, 1
  %exitcond.not = icmp eq i64 %indvars.iv.next20, %wide.trip.count
  br i1 %exitcond.not, label %._crit_edge, label %.preheader.us, !llvm.loop !28

.preheader.split.us.us:                           ; preds = %.preheader.us
  %22 = getelementptr inbounds float, ptr %0, i64 %19
  store float 0.000000e+00, ptr %22, align 4, !tbaa !17
  br label %.loopexit.us

._crit_edge:                                      ; preds = %.loopexit.us, %.lr.ph, %3
  ret void
}